target datalayout = "e-m:e-p270:32:32-p271:32:32-p272:64:64-i64:64-i128:128-f80:128-n8:16:32:64-S128"
target triple = "x86_64-unknown-linux-gnu"

%struct.PlatformBusDevice = type { %struct.SysBusDevice, i32, %struct.MemoryRegion, i32, ptr, ptr }
%struct.SysBusDevice = type { %struct.DeviceState, i32, [32 x %struct.anon], i32, [32 x i32] }
%struct.DeviceState = type { %struct.Object, ptr, ptr, i8, i8, i64, ptr, i32, i8, ptr, %struct.NamedGPIOListHead, %struct.NamedClockListHead, %struct.BusStateHead, i32, i32, i32, %struct.ResettableState, ptr, %struct.MemReentrancyGuard }
%struct.Object = type { ptr, ptr, ptr, i32, ptr }
%struct.NamedGPIOListHead = type { ptr }
%struct.NamedClockListHead = type { ptr }
%struct.BusStateHead = type { ptr }
%struct.ResettableState = type { i32, i8, i8 }
%struct.MemReentrancyGuard = type { i8 }
%struct.anon = type { i64, ptr }
%struct.MemoryRegion = type { %struct.Object, i8, i8, i8, i8, i8, i8, i8, i8, i8, i8, ptr, ptr, ptr, ptr, ptr, ptr, i32, i128, i64, ptr, i64, i8, i8, i8, i8, i8, ptr, i64, i32, %union.anon, %union.anon.0, %union.anon.1, ptr, i32, ptr, ptr, i8 }
%union.anon = type { %struct.QTailQLink }
%struct.QTailQLink = type { ptr, ptr }
%union.anon.0 = type { %struct.QTailQLink }
%union.anon.1 = type { %struct.QTailQLink }

; Function Attrs: nounwind sspstrong uwtable
define internal void @platform_bus_count_irqs(ptr noundef %sbdev, ptr noundef %opaque) #0 {
entry:
  %sbdev.addr = alloca ptr, align 8
  %opaque.addr = alloca ptr, align 8
  %pbus = alloca ptr, align 8
  %sbirq = alloca ptr, align 8
  %n = alloca i32, align 4
  %i = alloca i32, align 4
  store ptr %sbdev, ptr %sbdev.addr, align 8
  store ptr %opaque, ptr %opaque.addr, align 8
  %0 = load ptr, ptr %opaque.addr, align 8
  store ptr %0, ptr %pbus, align 8
  store i32 0, ptr %n, align 4
  br label %for.cond

for.cond:                                         ; preds = %for.inc6, %entry
  %1 = load ptr, ptr %sbdev.addr, align 8
  %2 = load i32, ptr %n, align 4
  %call = call zeroext i1 @sysbus_has_irq(ptr noundef %1, i32 noundef %2)
  br i1 %call, label %if.end, label %if.then

if.then:                                          ; preds = %for.cond
  br label %for.end8

if.end:                                           ; preds = %for.cond
  %3 = load ptr, ptr %sbdev.addr, align 8
  %4 = load i32, ptr %n, align 4
  %call1 = call ptr @sysbus_get_connected_irq(ptr noundef %3, i32 noundef %4)
  store ptr %call1, ptr %sbirq, align 8
  store i32 0, ptr %i, align 4
  br label %for.cond2

for.cond2:                                        ; preds = %for.inc, %if.end
  %5 = load i32, ptr %i, align 4
  %6 = load ptr, ptr %pbus, align 8
  %num_irqs = getelementptr inbounds %struct.PlatformBusDevice, ptr %6, i32 0, i32 3
  %7 = load i32, ptr %num_irqs, align 16
  %cmp = icmp ult i32 %5, %7
  br i1 %cmp, label %for.body, label %for.end

for.body:                                         ; preds = %for.cond2
  %8 = load ptr, ptr %pbus, align 8
  %irqs = getelementptr inbounds %struct.PlatformBusDevice, ptr %8, i32 0, i32 4
  %9 = load ptr, ptr %irqs, align 8
  %10 = load i32, ptr %i, align 4
  %idxprom = sext i32 %10 to i64
  %arrayidx = getelementptr ptr, ptr %9, i64 %idxprom
  %11 = load ptr, ptr %arrayidx, align 8
  %12 = load ptr, ptr %sbirq, align 8
  %cmp3 = icmp eq ptr %11, %12
  br i1 %cmp3, label %if.then4, label %if.end5

if.then4:                                         ; preds = %for.body
  %13 = load ptr, ptr %pbus, align 8
  %used_irqs = getelementptr inbounds %struct.PlatformBusDevice, ptr %13, i32 0, i32 5
  %14 = load ptr, ptr %used_irqs, align 16
  %15 = load i32, ptr %i, align 4
  %conv = sext i32 %15 to i64
  call void @bitmap_set(ptr noundef %14, i64 noundef %conv, i64 noundef 1)
  br label %for.end

if.end5:                                          ; preds = %for.body
  br label %for.inc

for.inc:                                          ; preds = %if.end5
  %16 = load i32, ptr %i, align 4
  %inc = add i32 %16, 1
  store i32 %inc, ptr %i, align 4
  br label %for.cond2, !llvm.loop !11

for.end:                                          ; preds = %if.then4, %for.cond2
  br label %for.inc6

for.inc6:                                         ; preds = %for.end
  %17 = load i32, ptr %n, align 4
  %inc7 = add i32 %17, 1
  store i32 %inc7, ptr %n, align 4
  br label %for.cond

for.end8:                                         ; preds = %if.then
  ret void
}