; Function Attrs: nounwind sspstrong uwtable
define internal void @platform_bus_count_irqs(ptr noundef %sbdev, ptr noundef readonly captures(none) %opaque) #0 {
entry:
  %call11 = tail call zeroext i1 @sysbus_has_irq(ptr noundef %sbdev, i32 noundef 0) #9
  br i1 %call11, label %if.end.lr.ph, label %for.end8

if.end.lr.ph:                                     ; preds = %entry
  %num_irqs = getelementptr inbounds nuw i8, ptr %opaque, i64 1104
  %irqs = getelementptr inbounds nuw i8, ptr %opaque, i64 1112
  %used_irqs = getelementptr inbounds nuw i8, ptr %opaque, i64 1120
  br label %if.end

if.end:                                           ; preds = %if.end.lr.ph, %for.inc6
  %n.012 = phi i32 [ 0, %if.end.lr.ph ], [ %inc7, %for.inc6 ]
  %call1 = tail call ptr @sysbus_get_connected_irq(ptr noundef %sbdev, i32 noundef %n.012) #9
  %0 = load i32, ptr %num_irqs, align 16
  %cmp9.not = icmp eq i32 %0, 0
  br i1 %cmp9.not, label %for.inc6, label %for.body.lr.ph

for.body.lr.ph:                                   ; preds = %if.end
  %1 = load ptr, ptr %irqs, align 8
  br label %for.body

for.cond2:                                        ; preds = %for.body
  %inc = add nuw i32 %i.010, 1
  %exitcond.not = icmp eq i32 %inc, %0
  br i1 %exitcond.not, label %for.inc6, label %for.body, !llvm.loop !11

for.body:                                         ; preds = %for.body.lr.ph, %for.cond2
  %i.010 = phi i32 [ 0, %for.body.lr.ph ], [ %inc, %for.cond2 ]
  %idxprom = sext i32 %i.010 to i64
  %arrayidx = getelementptr ptr, ptr %1, i64 %idxprom
  %2 = load ptr, ptr %arrayidx, align 8
  %cmp3 = icmp eq ptr %2, %call1
  br i1 %cmp3, label %if.then4, label %for.cond2

if.then4:                                         ; preds = %for.body
  %3 = load ptr, ptr %used_irqs, align 16
  tail call void @bitmap_set(ptr noundef %3, i64 noundef %idxprom, i64 noundef 1) #9
  br label %for.inc6

for.inc6:                                         ; preds = %for.cond2, %if.end, %if.then4
  %inc7 = add i32 %n.012, 1
  %call = tail call zeroext i1 @sysbus_has_irq(ptr noundef %sbdev, i32 noundef %inc7) #9
  br i1 %call, label %if.end, label %for.end8

for.end8:                                         ; preds = %for.inc6, %entry
  ret void
}